target datalayout = "e-m:e-p270:32:32-p271:32:32-p272:64:64-i64:64-i128:128-f80:128-n8:16:32:64-S128"
target triple = "x86_64-pc-linux-gnu"

%struct.__jmp_buf_tag = type { [8 x i64], i32, %struct.__sigset_t }
%struct.__sigset_t = type { [16 x i64] }

@_ZN6googleL14g_called_abortE = internal global i8 0, align 1
@_ZN6google19g_logging_fail_funcE = external global ptr, align 8
@_ZN6googleL9g_jmp_bufE = internal global [1 x %struct.__jmp_buf_tag] zeroinitializer, align 16
@.str.26 = private unnamed_addr constant [7 x i8] c"foobar\00", align 1
@stderr = external global ptr, align 8
@.str.27 = private unnamed_addr constant [30 x i8] c"Function didn't die (%s): %s\0A\00", align 1
@.str.28 = private unnamed_addr constant [1 x i8] zeroinitializer, align 1
@.str.29 = private unnamed_addr constant [28 x i8] c"InitGoogleLogging(\22foobar\22)\00", align 1

; Function Attrs: mustprogress uwtable
define hidden void @_ZN41utilities_InitGoogleLoggingDeathTest_Test8TestBodyEv(ptr noundef nonnull align 8 dereferenceable(16) %0) unnamed_addr #0 align 2 {
  %2 = alloca ptr, align 8
  %3 = alloca ptr, align 8
  store ptr %0, ptr %2, align 8
  br label %4

4:                                                ; preds = %1
  store i8 0, ptr @_ZN6googleL14g_called_abortE, align 1
  %5 = load ptr, ptr @_ZN6google19g_logging_fail_funcE, align 8
  store ptr %5, ptr %3, align 8
  store ptr @_ZN6googleL11CalledAbortEv, ptr @_ZN6google19g_logging_fail_funcE, align 8
  %6 = call i32 @_setjmp(ptr noundef @_ZN6googleL9g_jmp_bufE) #25
  %7 = icmp ne i32 %6, 0
  br i1 %7, label %9, label %8

8:                                                ; preds = %4
  call void @_ZN6google17InitGoogleLoggingEPKc(ptr noundef @.str.26)
  br label %9

9:                                                ; preds = %8, %4
  %10 = load ptr, ptr %3, align 8
  store ptr %10, ptr @_ZN6google19g_logging_fail_funcE, align 8
  %11 = load i8, ptr @_ZN6googleL14g_called_abortE, align 1
  %12 = trunc i8 %11 to i1
  br i1 %12, label %16, label %13

13:                                               ; preds = %9
  %14 = load ptr, ptr @stderr, align 8
  %15 = call i32 (ptr, ptr, ...) @fprintf(ptr noundef %14, ptr noundef @.str.27, ptr noundef @.str.28, ptr noundef @.str.29) #5
  call void @exit(i32 noundef 1) #19
  unreachable

16:                                               ; preds = %9
  br label %17

17:                                               ; preds = %16
  ret void
}