; Function Attrs: mustprogress uwtable
define hidden void @_ZN41utilities_InitGoogleLoggingDeathTest_Test8TestBodyEv(ptr nocapture nonnull readnone align 8 %0) unnamed_addr #0 align 2 {
  store i1 false, ptr @_ZN6googleL14g_called_abortE, align 1
  %2 = load ptr, ptr @_ZN6google19g_logging_fail_funcE, align 8
  store ptr @_ZN6googleL11CalledAbortEv, ptr @_ZN6google19g_logging_fail_funcE, align 8
  %3 = call i32 @_setjmp(ptr noundef nonnull @_ZN6googleL9g_jmp_bufE) #27
  %.not = icmp eq i32 %3, 0
  br i1 %.not, label %4, label %5

4:                                                ; preds = %1
  call void @_ZN6google17InitGoogleLoggingEPKc(ptr noundef nonnull @.str.26)
  br label %5

5:                                                ; preds = %4, %1
  store ptr %2, ptr @_ZN6google19g_logging_fail_funcE, align 8
  %.b1 = load i1, ptr @_ZN6googleL14g_called_abortE, align 1
  br i1 %.b1, label %9, label %6

6:                                                ; preds = %5
  %7 = load ptr, ptr @stderr, align 8
  %8 = call i32 (ptr, ptr, ...) @fprintf(ptr noundef %7, ptr noundef nonnull @.str.27, ptr noundef nonnull @.str.28, ptr noundef nonnull @.str.29) #28
  call void @exit(i32 noundef 1) #25
  unreachable

9:                                                ; preds = %5
  ret void
}